; Function Attrs: mustprogress nofree norecurse nosync nounwind willreturn memory(write, inaccessiblemem: none) uwtable
define void @_ZN3tsi24TlsSessionKeyLoggerCacheC2Ev(ptr noundef nonnull align 8 dereferenceable(64) initializes((0, 16), (24, 28), (32, 40)) %0) unnamed_addr #17 align 2 personality ptr @__gxx_personality_v0 {
  %2 = getelementptr inbounds nuw i8, ptr %0, i64 8
  store i64 1, ptr %2, align 8, !tbaa !3
  store ptr getelementptr inbounds nuw inrange(-16, 16) (i8, ptr @_ZTVN3tsi24TlsSessionKeyLoggerCacheE, i64 16), ptr %0, align 8, !tbaa !8
  %3 = getelementptr inbounds nuw i8, ptr %0, i64 24
  store i32 0, ptr %3, align 8, !tbaa !56
  %4 = getelementptr inbounds nuw i8, ptr %0, i64 32
  store ptr null, ptr %4, align 8, !tbaa !39
  %5 = getelementptr inbounds nuw i8, ptr %0, i64 40
  store ptr %3, ptr %5, align 8, !tbaa !57
  %6 = getelementptr inbounds nuw i8, ptr %0, i64 48
  store ptr %3, ptr %6, align 8, !tbaa !58
  %7 = getelementptr inbounds nuw i8, ptr %0, i64 56
  store i64 0, ptr %7, align 8, !tbaa !51
  store ptr %0, ptr @_ZN3tsi12_GLOBAL__N_116g_cache_instanceE, align 8, !tbaa !59
  ret void
}